; ModuleID = '57/186.c'
source_filename = "57/186.c"
target datalayout = "e-m:e-p270:32:32-p271:32:32-p272:64:64-i64:64-f80:128-n8:16:32:64-S128"
target triple = "x86_64-pc-linux-gnu"

@.str = private unnamed_addr constant [3 x i8] c"%d\00", align 1
@.str.1 = private unnamed_addr constant [3 x i8] c"%s\00", align 1
@.str.2 = private unnamed_addr constant [4 x i8] c"%s\0A\00", align 1

; Function Attrs: noinline nounwind uwtable
define dso_local void @main() #0 {
  %1 = alloca i32, align 4
  %2 = alloca i32, align 4
  %3 = alloca i32, align 4
  %4 = alloca [100 x [50 x i8]], align 16
  %5 = alloca [100 x [50 x i8]], align 16
  %6 = call i32 (i8*, ...) @__isoc99_scanf(i8* getelementptr inbounds ([3 x i8], [3 x i8]* @.str, i64 0, i64 0), i32* %1)
  store i32 1, i32* %2, align 4
  br label %7

7:                                                ; preds = %72, %0
  %8 = load i32, i32* %2, align 4
  %9 = load i32, i32* %1, align 4
  %10 = icmp sle i32 %8, %9
  br i1 %10, label %11, label %75

11:                                               ; preds = %7
  %12 = load i32, i32* %2, align 4
  %13 = sext i32 %12 to i64
  %14 = getelementptr inbounds [100 x [50 x i8]], [100 x [50 x i8]]* %4, i64 0, i64 %13
  %15 = getelementptr inbounds [50 x i8], [50 x i8]* %14, i64 0, i64 0
  %16 = call i32 (i8*, ...) @__isoc99_scanf(i8* getelementptr inbounds ([3 x i8], [3 x i8]* @.str.1, i64 0, i64 0), i8* %15)
  %17 = load i32, i32* %2, align 4
  %18 = sext i32 %17 to i64
  %19 = getelementptr inbounds [100 x [50 x i8]], [100 x [50 x i8]]* %4, i64 0, i64 %18
  %20 = getelementptr inbounds [50 x i8], [50 x i8]* %19, i64 0, i64 0
  %21 = call i64 @strlen(i8* %20) #3
  %22 = trunc i64 %21 to i32
  store i32 %22, i32* %3, align 4
  %23 = load i32, i32* %2, align 4
  %24 = sext i32 %23 to i64
  %25 = getelementptr inbounds [100 x [50 x i8]], [100 x [50 x i8]]* %4, i64 0, i64 %24
  %26 = load i32, i32* %3, align 4
  %27 = sub nsw i32 %26, 1
  %28 = sext i32 %27 to i64
  %29 = getelementptr inbounds [50 x i8], [50 x i8]* %25, i64 0, i64 %28
  %30 = load i8, i8* %29, align 1
  %31 = sext i8 %30 to i32
  %32 = icmp eq i32 %31, 114
  br i1 %32, label %44, label %33

33:                                               ; preds = %11
  %34 = load i32, i32* %2, align 4
  %35 = sext i32 %34 to i64
  %36 = getelementptr inbounds [100 x [50 x i8]], [100 x [50 x i8]]* %4, i64 0, i64 %35
  %37 = load i32, i32* %3, align 4
  %38 = sub nsw i32 %37, 1
  %39 = sext i32 %38 to i64
  %40 = getelementptr inbounds [50 x i8], [50 x i8]* %36, i64 0, i64 %39
  %41 = load i8, i8* %40, align 1
  %42 = sext i8 %41 to i32
  %43 = icmp eq i32 %42, 121
  br i1 %43, label %44, label %52

44:                                               ; preds = %33, %11
  %45 = load i32, i32* %2, align 4
  %46 = sext i32 %45 to i64
  %47 = getelementptr inbounds [100 x [50 x i8]], [100 x [50 x i8]]* %4, i64 0, i64 %46
  %48 = load i32, i32* %3, align 4
  %49 = sub nsw i32 %48, 2
  %50 = sext i32 %49 to i64
  %51 = getelementptr inbounds [50 x i8], [50 x i8]* %47, i64 0, i64 %50
  store i8 0, i8* %51, align 1
  br label %52

52:                                               ; preds = %44, %33
  %53 = load i32, i32* %2, align 4
  %54 = sext i32 %53 to i64
  %55 = getelementptr inbounds [100 x [50 x i8]], [100 x [50 x i8]]* %4, i64 0, i64 %54
  %56 = load i32, i32* %3, align 4
  %57 = sub nsw i32 %56, 1
  %58 = sext i32 %57 to i64
  %59 = getelementptr inbounds [50 x i8], [50 x i8]* %55, i64 0, i64 %58
  %60 = load i8, i8* %59, align 1
  %61 = sext i8 %60 to i32
  %62 = icmp eq i32 %61, 103
  br i1 %62, label %63, label %71

63:                                               ; preds = %52
  %64 = load i32, i32* %2, align 4
  %65 = sext i32 %64 to i64
  %66 = getelementptr inbounds [100 x [50 x i8]], [100 x [50 x i8]]* %4, i64 0, i64 %65
  %67 = load i32, i32* %3, align 4
  %68 = sub nsw i32 %67, 3
  %69 = sext i32 %68 to i64
  %70 = getelementptr inbounds [50 x i8], [50 x i8]* %66, i64 0, i64 %69
  store i8 0, i8* %70, align 1
  br label %71

71:                                               ; preds = %63, %52
  br label %72

72:                                               ; preds = %71
  %73 = load i32, i32* %2, align 4
  %74 = add nsw i32 %73, 1
  store i32 %74, i32* %2, align 4
  br label %7

75:                                               ; preds = %7
  store i32 1, i32* %2, align 4
  br label %76

76:                                               ; preds = %86, %75
  %77 = load i32, i32* %2, align 4
  %78 = load i32, i32* %1, align 4
  %79 = icmp sle i32 %77, %78
  br i1 %79, label %80, label %89

80:                                               ; preds = %76
  %81 = load i32, i32* %2, align 4
  %82 = sext i32 %81 to i64
  %83 = getelementptr inbounds [100 x [50 x i8]], [100 x [50 x i8]]* %4, i64 0, i64 %82
  %84 = getelementptr inbounds [50 x i8], [50 x i8]* %83, i64 0, i64 0
  %85 = call i32 (i8*, ...) @printf(i8* getelementptr inbounds ([4 x i8], [4 x i8]* @.str.2, i64 0, i64 0), i8* %84)
  br label %86

86:                                               ; preds = %80
  %87 = load i32, i32* %2, align 4
  %88 = add nsw i32 %87, 1
  store i32 %88, i32* %2, align 4
  br label %76

89:                                               ; preds = %76
  ret void
}

declare dso_local i32 @__isoc99_scanf(i8*, ...) #1

; Function Attrs: nounwind readonly
declare dso_local i64 @strlen(i8*) #2

declare dso_local i32 @printf(i8*, ...) #1


!llvm.module.flags = !{!0}
!llvm.ident = !{!1}

!0 = !{i32 1, !"wchar_size", i32 4}
!1 = !{!"clang version 10.0.0-4ubuntu1 "}
